; Function Attrs: mustprogress nofree norecurse nosync nounwind willreturn memory(argmem: write) uwtable
define void @_ZN3g2o10DrawAction10ParametersC2Ev(ptr noundef nonnull align 8 dereferenceable(56) initializes((16, 20), (24, 32)) %0) unnamed_addr #6 align 2 personality ptr @__gxx_personality_v0 {
  %2 = getelementptr inbounds nuw i8, ptr %0, i64 16
  store i32 0, ptr %2, align 8, !tbaa !28
  %3 = getelementptr inbounds nuw i8, ptr %0, i64 24
  store ptr null, ptr %3, align 8, !tbaa !8
  %4 = getelementptr inbounds nuw i8, ptr %0, i64 32
  store ptr %2, ptr %4, align 8, !tbaa !29
  %5 = getelementptr inbounds nuw i8, ptr %0, i64 40
  store ptr %2, ptr %5, align 8, !tbaa !30
  %6 = getelementptr inbounds nuw i8, ptr %0, i64 48
  store i64 0, ptr %6, align 8, !tbaa !31
  store ptr getelementptr inbounds nuw inrange(-16, 16) (i8, ptr @_ZTVN3g2o10DrawAction10ParametersE, i64 16), ptr %0, align 8, !tbaa !14
  ret void
}